target datalayout = "e-m:e-p270:32:32-p271:32:32-p272:64:64-i64:64-i128:128-f80:128-n8:16:32:64-S128"
target triple = "x86_64-pc-linux-gnu"

%"class.google::LogMessageVoidify" = type { i8 }
%"class.google::LogMessageFatal" = type { %"class.google::LogMessage" }
%"class.google::LogMessage" = type { ptr, ptr, %"struct.google::LogMessageTime" }
%"struct.google::LogMessageTime" = type { %struct.tm, i64, i32, i64 }
%struct.tm = type { i32, i32, i32, i32, i32, i32, i32, i32, i32, i64, ptr }

@.str = private unnamed_addr constant [127 x i8] c"generated/home/dtcxzyw/WorkSpace/Projects/compilers/llvm-opt-benchmark/bench/ceres/ceres-solver/internal/ceres/problem_impl.cc\00", align 1
@.str.55 = private unnamed_addr constant [94 x i8] c"Check failed: !RegionsAlias( existing_block, existing_block_size, new_block, new_block_size) \00", align 1
@.str.56 = private unnamed_addr constant [62 x i8] c"Aliasing detected between existing parameter block at memory \00", align 1
@.str.57 = private unnamed_addr constant [10 x i8] c"location \00", align 1
@.str.58 = private unnamed_addr constant [15 x i8] c" and has size \00", align 1
@.str.59 = private unnamed_addr constant [21 x i8] c" with new parameter \00", align 1
@.str.60 = private unnamed_addr constant [31 x i8] c"block that has memory address \00", align 1
@.str.61 = private unnamed_addr constant [17 x i8] c" and would have \00", align 1
@.str.62 = private unnamed_addr constant [6 x i8] c"size \00", align 1
@.str.63 = private unnamed_addr constant [2 x i8] c".\00", align 1

; Function Attrs: mustprogress nounwind uwtable
define linkonce_odr hidden void @_ZN6google17LogMessageVoidifyanERSo(ptr noundef nonnull align 1 dereferenceable(1) %0, ptr noundef nonnull align 8 dereferenceable(8) %1) #1 comdat align 2 {
  %3 = alloca ptr, align 8
  %4 = alloca ptr, align 8
  store ptr %0, ptr %3, align 8
  store ptr %1, ptr %4, align 8
  ret void
}

; Function Attrs: mustprogress nounwind uwtable
define linkonce_odr hidden void @_ZN6google17LogMessageVoidifyC2Ev(ptr noundef nonnull align 1 dereferenceable(1) %0) unnamed_addr #1 comdat align 2 {
  %2 = alloca ptr, align 8
  store ptr %0, ptr %2, align 8
  ret void
}

; Function Attrs: mustprogress nounwind uwtable
define internal noundef zeroext i1 @_ZN5ceres8internal12_GLOBAL__N_112RegionsAliasEPKdiS3_i(ptr noundef %0, i32 noundef %1, ptr noundef %2, i32 noundef %3) #1 {
  %5 = alloca ptr, align 8
  %6 = alloca i32, align 4
  %7 = alloca ptr, align 8
  %8 = alloca i32, align 4
  store ptr %0, ptr %5, align 8
  store i32 %1, ptr %6, align 4
  store ptr %2, ptr %7, align 8
  store i32 %3, ptr %8, align 4
  %9 = load ptr, ptr %5, align 8
  %10 = load ptr, ptr %7, align 8
  %11 = icmp ult ptr %9, %10
  br i1 %11, label %12, label %19

12:                                               ; preds = %4
  %13 = load ptr, ptr %7, align 8
  %14 = load ptr, ptr %5, align 8
  %15 = load i32, ptr %6, align 4
  %16 = sext i32 %15 to i64
  %17 = getelementptr inbounds double, ptr %14, i64 %16
  %18 = icmp ult ptr %13, %17
  br label %26

19:                                               ; preds = %4
  %20 = load ptr, ptr %5, align 8
  %21 = load ptr, ptr %7, align 8
  %22 = load i32, ptr %8, align 4
  %23 = sext i32 %22 to i64
  %24 = getelementptr inbounds double, ptr %21, i64 %23
  %25 = icmp ult ptr %20, %24
  br label %26

26:                                               ; preds = %19, %12
  %27 = phi i1 [ %18, %12 ], [ %25, %19 ]
  ret i1 %27
}

; Function Attrs: mustprogress uwtable
define internal void @_ZN5ceres8internal12_GLOBAL__N_118CheckForNoAliasingEPdiS2_i(ptr noundef %0, i32 noundef %1, ptr noundef %2, i32 noundef %3) #2 personality ptr @__gxx_personality_v0 {
  %5 = alloca ptr, align 8
  %6 = alloca i32, align 4
  %7 = alloca ptr, align 8
  %8 = alloca i32, align 4
  %9 = alloca %"class.google::LogMessageVoidify", align 1
  %10 = alloca %"class.google::LogMessageFatal", align 8
  %11 = alloca i1, align 1
  %12 = alloca ptr, align 8
  %13 = alloca i32, align 4
  store ptr %0, ptr %5, align 8
  store i32 %1, ptr %6, align 4
  store ptr %2, ptr %7, align 8
  store i32 %3, ptr %8, align 4
  %14 = load ptr, ptr %5, align 8
  %15 = load i32, ptr %6, align 4
  %16 = load ptr, ptr %7, align 8
  %17 = load i32, ptr %8, align 4
  %18 = call noundef zeroext i1 @_ZN5ceres8internal12_GLOBAL__N_112RegionsAliasEPKdiS3_i(ptr noundef %14, i32 noundef %15, ptr noundef %16, i32 noundef %17)
  %19 = xor i1 %18, true
  %20 = xor i1 %19, true
  store i1 false, ptr %11, align 1
  br i1 %20, label %22, label %21

21:                                               ; preds = %4
  br label %55

22:                                               ; preds = %4
  call void @_ZN6google17LogMessageVoidifyC2Ev(ptr noundef nonnull align 1 dereferenceable(1) %9)
  call void @_ZN6google15LogMessageFatalC1EPKci(ptr noundef nonnull align 8 dereferenceable(96) %10, ptr noundef @.str, i32 noundef 79)
  store i1 true, ptr %11, align 1
  %23 = invoke noundef nonnull align 8 dereferenceable(8) ptr @_ZN6google10LogMessage6streamEv(ptr noundef nonnull align 8 dereferenceable(96) %10)
          to label %24 unwind label %58

24:                                               ; preds = %22
  %25 = invoke noundef nonnull align 8 dereferenceable(8) ptr @_ZStlsISt11char_traitsIcEERSt13basic_ostreamIcT_ES5_PKc(ptr noundef nonnull align 8 dereferenceable(8) %23, ptr noundef @.str.55)
          to label %26 unwind label %58

26:                                               ; preds = %24
  %27 = invoke noundef nonnull align 8 dereferenceable(8) ptr @_ZStlsISt11char_traitsIcEERSt13basic_ostreamIcT_ES5_PKc(ptr noundef nonnull align 8 dereferenceable(8) %25, ptr noundef @.str.56)
          to label %28 unwind label %58

28:                                               ; preds = %26
  %29 = invoke noundef nonnull align 8 dereferenceable(8) ptr @_ZStlsISt11char_traitsIcEERSt13basic_ostreamIcT_ES5_PKc(ptr noundef nonnull align 8 dereferenceable(8) %27, ptr noundef @.str.57)
          to label %30 unwind label %58

30:                                               ; preds = %28
  %31 = load ptr, ptr %5, align 8
  %32 = invoke noundef nonnull align 8 dereferenceable(8) ptr @_ZNSolsEPKv(ptr noundef nonnull align 8 dereferenceable(8) %29, ptr noundef %31)
          to label %33 unwind label %58

33:                                               ; preds = %30
  %34 = invoke noundef nonnull align 8 dereferenceable(8) ptr @_ZStlsISt11char_traitsIcEERSt13basic_ostreamIcT_ES5_PKc(ptr noundef nonnull align 8 dereferenceable(8) %32, ptr noundef @.str.58)
          to label %35 unwind label %58

35:                                               ; preds = %33
  %36 = load i32, ptr %6, align 4
  %37 = invoke noundef nonnull align 8 dereferenceable(8) ptr @_ZNSolsEi(ptr noundef nonnull align 8 dereferenceable(8) %34, i32 noundef %36)
          to label %38 unwind label %58

38:                                               ; preds = %35
  %39 = invoke noundef nonnull align 8 dereferenceable(8) ptr @_ZStlsISt11char_traitsIcEERSt13basic_ostreamIcT_ES5_PKc(ptr noundef nonnull align 8 dereferenceable(8) %37, ptr noundef @.str.59)
          to label %40 unwind label %58

40:                                               ; preds = %38
  %41 = invoke noundef nonnull align 8 dereferenceable(8) ptr @_ZStlsISt11char_traitsIcEERSt13basic_ostreamIcT_ES5_PKc(ptr noundef nonnull align 8 dereferenceable(8) %39, ptr noundef @.str.60)
          to label %42 unwind label %58

42:                                               ; preds = %40
  %43 = load ptr, ptr %7, align 8
  %44 = invoke noundef nonnull align 8 dereferenceable(8) ptr @_ZNSolsEPKv(ptr noundef nonnull align 8 dereferenceable(8) %41, ptr noundef %43)
          to label %45 unwind label %58

45:                                               ; preds = %42
  %46 = invoke noundef nonnull align 8 dereferenceable(8) ptr @_ZStlsISt11char_traitsIcEERSt13basic_ostreamIcT_ES5_PKc(ptr noundef nonnull align 8 dereferenceable(8) %44, ptr noundef @.str.61)
          to label %47 unwind label %58

47:                                               ; preds = %45
  %48 = invoke noundef nonnull align 8 dereferenceable(8) ptr @_ZStlsISt11char_traitsIcEERSt13basic_ostreamIcT_ES5_PKc(ptr noundef nonnull align 8 dereferenceable(8) %46, ptr noundef @.str.62)
          to label %49 unwind label %58

49:                                               ; preds = %47
  %50 = load i32, ptr %8, align 4
  %51 = invoke noundef nonnull align 8 dereferenceable(8) ptr @_ZNSolsEi(ptr noundef nonnull align 8 dereferenceable(8) %48, i32 noundef %50)
          to label %52 unwind label %58

52:                                               ; preds = %49
  %53 = invoke noundef nonnull align 8 dereferenceable(8) ptr @_ZStlsISt11char_traitsIcEERSt13basic_ostreamIcT_ES5_PKc(ptr noundef nonnull align 8 dereferenceable(8) %51, ptr noundef @.str.63)
          to label %54 unwind label %58

54:                                               ; preds = %52
  call void @_ZN6google17LogMessageVoidifyanERSo(ptr noundef nonnull align 1 dereferenceable(1) %9, ptr noundef nonnull align 8 dereferenceable(8) %53)
  br label %55

55:                                               ; preds = %54, %21
  %56 = load i1, ptr %11, align 1
  br i1 %56, label %57, label %64

57:                                               ; preds = %55
  call void @_ZN6google15LogMessageFatalD1Ev(ptr noundef nonnull align 8 dereferenceable(96) %10) #17
  unreachable

58:                                               ; preds = %52, %49, %47, %45, %42, %40, %38, %35, %33, %30, %28, %26, %24, %22
  %59 = landingpad { ptr, i32 }
          cleanup
  %60 = extractvalue { ptr, i32 } %59, 0
  store ptr %60, ptr %12, align 8
  %61 = extractvalue { ptr, i32 } %59, 1
  store i32 %61, ptr %13, align 4
  %62 = load i1, ptr %11, align 1
  br i1 %62, label %65, label %67

63:                                               ; No predecessors!
  br label %64

64:                                               ; preds = %63, %55
  ret void

65:                                               ; preds = %58
  call void @_ZN6google15LogMessageFatalD1Ev(ptr noundef nonnull align 8 dereferenceable(96) %10) #17
  unreachable

66:                                               ; No predecessors!
  br label %67

67:                                               ; preds = %66, %58
  br label %68

68:                                               ; preds = %67
  %69 = load ptr, ptr %12, align 8
  %70 = load i32, ptr %13, align 4
  %71 = insertvalue { ptr, i32 } poison, ptr %69, 0
  %72 = insertvalue { ptr, i32 } %71, i32 %70, 1
  resume { ptr, i32 } %72
}